target datalayout = "e-m:e-p270:32:32-p271:32:32-p272:64:64-i64:64-i128:128-f80:128-n8:16:32:64-S128"
target triple = "x86_64-pc-linux-gnu"

@.str.48 = private unnamed_addr constant [45 x i8] c"Warning: PI \22%s\22 appears twice in the list.\0A\00", align 1

; Function Attrs: nounwind uwtable
define internal ptr @Abc_NtkCreatePi(ptr noundef %0) #0 {
  %2 = alloca ptr, align 8
  store ptr %0, ptr %2, align 8
  %3 = load ptr, ptr %2, align 8
  %4 = call ptr @Abc_NtkCreateObj(ptr noundef %3, i32 noundef 2)
  ret ptr %4
}

; Function Attrs: nounwind uwtable
define ptr @Io_ReadCreatePi(ptr noundef %0, ptr noundef %1) #0 {
  %3 = alloca ptr, align 8
  %4 = alloca ptr, align 8
  %5 = alloca ptr, align 8
  %6 = alloca ptr, align 8
  store ptr %0, ptr %3, align 8
  store ptr %1, ptr %4, align 8
  %7 = load ptr, ptr %3, align 8
  %8 = load ptr, ptr %4, align 8
  %9 = call ptr @Abc_NtkFindNet(ptr noundef %7, ptr noundef %8)
  store ptr %9, ptr %5, align 8
  %10 = load ptr, ptr %5, align 8
  %11 = icmp ne ptr %10, null
  br i1 %11, label %12, label %15

12:                                               ; preds = %2
  %13 = load ptr, ptr %4, align 8
  %14 = call i32 (ptr, ...) @printf(ptr noundef @.str.48, ptr noundef %13)
  br label %15

15:                                               ; preds = %12, %2
  %16 = load ptr, ptr %3, align 8
  %17 = load ptr, ptr %4, align 8
  %18 = call ptr @Abc_NtkFindOrCreateNet(ptr noundef %16, ptr noundef %17)
  store ptr %18, ptr %5, align 8
  %19 = load ptr, ptr %3, align 8
  %20 = call ptr @Abc_NtkCreatePi(ptr noundef %19)
  store ptr %20, ptr %6, align 8
  %21 = load ptr, ptr %5, align 8
  %22 = load ptr, ptr %6, align 8
  call void @Abc_ObjAddFanin(ptr noundef %21, ptr noundef %22)
  %23 = load ptr, ptr %6, align 8
  ret ptr %23
}