; Function Attrs: nounwind uwtable
define noundef ptr @Io_ReadCreatePi(ptr noundef %0, ptr noundef %1) local_unnamed_addr #0 {
  %3 = tail call ptr @Abc_NtkFindNet(ptr noundef %0, ptr noundef %1) #14
  %.not = icmp eq ptr %3, null
  br i1 %.not, label %6, label %4

4:                                                ; preds = %2
  %5 = tail call i32 (ptr, ...) @printf(ptr noundef nonnull dereferenceable(1) @.str.48, ptr noundef %1)
  br label %6

6:                                                ; preds = %4, %2
  %7 = tail call ptr @Abc_NtkFindOrCreateNet(ptr noundef %0, ptr noundef %1) #14
  %8 = tail call ptr @Abc_NtkCreateObj(ptr noundef %0, i32 noundef 2) #14
  tail call void @Abc_ObjAddFanin(ptr noundef %7, ptr noundef %8) #14
  ret ptr %8
}